target datalayout = "e-m:e-p270:32:32-p271:32:32-p272:64:64-i64:64-i128:128-f80:128-n8:16:32:64-S128"
target triple = "x86_64-pc-linux-gnu"

%struct.PlannerInfo = type { i32, ptr, ptr, i32, ptr, ptr, ptr, ptr, i32, ptr, ptr, ptr, ptr, ptr, ptr, ptr, ptr, i32, ptr, ptr, ptr, ptr, ptr, i8, ptr, ptr, ptr, ptr, ptr, i32, ptr, ptr, ptr, ptr, ptr, ptr, ptr, i32, ptr, ptr, ptr, i32, ptr, ptr, ptr, ptr, ptr, ptr, [8 x ptr], [8 x ptr], ptr, ptr, ptr, ptr, ptr, ptr, ptr, double, double, double, i32, i8, i8, i8, i8, i8, i8, i8, i32, ptr, ptr, i32, i8, i8, i32, ptr, ptr, ptr, ptr, ptr, ptr, i8, ptr }
%struct.PlannerGlobal = type { i32, ptr, ptr, ptr, ptr, ptr, ptr, ptr, ptr, ptr, ptr, ptr, ptr, ptr, ptr, ptr, ptr, i32, i32, i32, i8, i8, i8, i8, i8, ptr }
%struct.RelOptInfo = type { i32, i32, ptr, double, i8, i8, i8, ptr, ptr, ptr, ptr, ptr, ptr, ptr, ptr, ptr, ptr, i32, i32, i32, i16, i16, ptr, ptr, ptr, ptr, ptr, ptr, ptr, ptr, i32, double, double, ptr, ptr, ptr, i32, i32, i32, i32, i8, ptr, ptr, ptr, ptr, ptr, %struct.QualCost, i32, ptr, i8, i8, ptr, ptr, ptr, ptr, i32, ptr, i8, ptr, ptr, ptr, ptr, ptr, ptr }
%struct.QualCost = type { double, double }
%struct.Plan = type { i32, i32, double, double, double, i32, i8, i8, i8, i32, ptr, ptr, ptr, ptr, ptr, ptr, ptr }
%struct.Scan = type { %struct.Plan, i32 }
%struct.SubqueryScan = type { %struct.Scan, ptr, i32 }
%struct.fix_scan_expr_context = type { ptr, i32, double }

; Function Attrs: nounwind uwtable
define internal ptr @fix_scan_expr(ptr noundef %0, ptr noundef %1, i32 noundef %2, double noundef %3) #0 {
  %5 = alloca ptr, align 8
  %6 = alloca ptr, align 8
  %7 = alloca ptr, align 8
  %8 = alloca i32, align 4
  %9 = alloca double, align 8
  %10 = alloca %struct.fix_scan_expr_context, align 8
  %11 = alloca i32, align 4
  store ptr %0, ptr %6, align 8
  store ptr %1, ptr %7, align 8
  store i32 %2, ptr %8, align 4
  store double %3, ptr %9, align 8
  call void @llvm.lifetime.start.p0(i64 24, ptr %10) #8
  %12 = load ptr, ptr %6, align 8
  %13 = getelementptr inbounds nuw %struct.fix_scan_expr_context, ptr %10, i32 0, i32 0
  store ptr %12, ptr %13, align 8
  %14 = load i32, ptr %8, align 4
  %15 = getelementptr inbounds nuw %struct.fix_scan_expr_context, ptr %10, i32 0, i32 1
  store i32 %14, ptr %15, align 8
  %16 = load double, ptr %9, align 8
  %17 = getelementptr inbounds nuw %struct.fix_scan_expr_context, ptr %10, i32 0, i32 2
  store double %16, ptr %17, align 8
  %18 = load i32, ptr %8, align 4
  %19 = icmp ne i32 %18, 0
  br i1 %19, label %42, label %20

20:                                               ; preds = %4
  %21 = load ptr, ptr %6, align 8
  %22 = getelementptr inbounds nuw %struct.PlannerInfo, ptr %21, i32 0, i32 20
  %23 = load ptr, ptr %22, align 8
  %24 = icmp ne ptr %23, null
  br i1 %24, label %42, label %25

25:                                               ; preds = %20
  %26 = load ptr, ptr %6, align 8
  %27 = getelementptr inbounds nuw %struct.PlannerInfo, ptr %26, i32 0, i32 2
  %28 = load ptr, ptr %27, align 8
  %29 = getelementptr inbounds nuw %struct.PlannerGlobal, ptr %28, i32 0, i32 17
  %30 = load i32, ptr %29, align 8
  %31 = icmp ne i32 %30, 0
  br i1 %31, label %42, label %32

32:                                               ; preds = %25
  %33 = load ptr, ptr %6, align 8
  %34 = getelementptr inbounds nuw %struct.PlannerInfo, ptr %33, i32 0, i32 55
  %35 = load ptr, ptr %34, align 8
  %36 = icmp ne ptr %35, null
  br i1 %36, label %42, label %37

37:                                               ; preds = %32
  %38 = load ptr, ptr %6, align 8
  %39 = getelementptr inbounds nuw %struct.PlannerInfo, ptr %38, i32 0, i32 65
  %40 = load i8, ptr %39, align 8, !range !7, !noundef !8
  %41 = trunc i8 %40 to i1
  br i1 %41, label %42, label %45

42:                                               ; preds = %37, %32, %25, %20, %4
  %43 = load ptr, ptr %7, align 8
  %44 = call ptr @fix_scan_expr_mutator(ptr noundef %43, ptr noundef %10)
  store ptr %44, ptr %5, align 8
  store i32 1, ptr %11, align 4
  br label %49

45:                                               ; preds = %37
  %46 = load ptr, ptr %7, align 8
  %47 = call zeroext i1 @fix_scan_expr_walker(ptr noundef %46, ptr noundef %10)
  %48 = load ptr, ptr %7, align 8
  store ptr %48, ptr %5, align 8
  store i32 1, ptr %11, align 4
  br label %49

49:                                               ; preds = %45, %42
  call void @llvm.lifetime.end.p0(i64 24, ptr %10) #8
  %50 = load ptr, ptr %5, align 8
  ret ptr %50
}

; Function Attrs: nounwind uwtable
define internal ptr @clean_up_removed_plan_level(ptr noundef %0, ptr noundef %1) #0 {
  %3 = alloca ptr, align 8
  %4 = alloca ptr, align 8
  %5 = alloca double, align 8
  %6 = alloca i8, align 1
  store ptr %0, ptr %3, align 8
  store ptr %1, ptr %4, align 8
  %7 = load ptr, ptr %3, align 8
  %8 = getelementptr inbounds nuw %struct.Plan, ptr %7, i32 0, i32 14
  %9 = load ptr, ptr %8, align 8
  %10 = icmp ne ptr %9, null
  br i1 %10, label %11, label %40

11:                                               ; preds = %2
  call void @llvm.lifetime.start.p0(i64 8, ptr %5) #8
  call void @llvm.lifetime.start.p0(i64 1, ptr %6) #8
  %12 = load ptr, ptr %3, align 8
  %13 = getelementptr inbounds nuw %struct.Plan, ptr %12, i32 0, i32 14
  %14 = load ptr, ptr %13, align 8
  call void @SS_compute_initplan_cost(ptr noundef %14, ptr noundef %5, ptr noundef %6)
  %15 = load double, ptr %5, align 8
  %16 = load ptr, ptr %4, align 8
  %17 = getelementptr inbounds nuw %struct.Plan, ptr %16, i32 0, i32 2
  %18 = load double, ptr %17, align 8
  %19 = fadd double %18, %15
  store double %19, ptr %17, align 8
  %20 = load double, ptr %5, align 8
  %21 = load ptr, ptr %4, align 8
  %22 = getelementptr inbounds nuw %struct.Plan, ptr %21, i32 0, i32 3
  %23 = load double, ptr %22, align 8
  %24 = fadd double %23, %20
  store double %24, ptr %22, align 8
  %25 = load i8, ptr %6, align 1, !range !7, !noundef !8
  %26 = trunc i8 %25 to i1
  br i1 %26, label %27, label %30

27:                                               ; preds = %11
  %28 = load ptr, ptr %4, align 8
  %29 = getelementptr inbounds nuw %struct.Plan, ptr %28, i32 0, i32 7
  store i8 0, ptr %29, align 1
  br label %30

30:                                               ; preds = %27, %11
  %31 = load ptr, ptr %3, align 8
  %32 = getelementptr inbounds nuw %struct.Plan, ptr %31, i32 0, i32 14
  %33 = load ptr, ptr %32, align 8
  %34 = load ptr, ptr %4, align 8
  %35 = getelementptr inbounds nuw %struct.Plan, ptr %34, i32 0, i32 14
  %36 = load ptr, ptr %35, align 8
  %37 = call ptr @list_concat(ptr noundef %33, ptr noundef %36)
  %38 = load ptr, ptr %4, align 8
  %39 = getelementptr inbounds nuw %struct.Plan, ptr %38, i32 0, i32 14
  store ptr %37, ptr %39, align 8
  call void @llvm.lifetime.end.p0(i64 1, ptr %6) #8
  call void @llvm.lifetime.end.p0(i64 8, ptr %5) #8
  br label %40

40:                                               ; preds = %30, %2
  %41 = load ptr, ptr %4, align 8
  %42 = getelementptr inbounds nuw %struct.Plan, ptr %41, i32 0, i32 10
  %43 = load ptr, ptr %42, align 8
  %44 = load ptr, ptr %3, align 8
  %45 = getelementptr inbounds nuw %struct.Plan, ptr %44, i32 0, i32 10
  %46 = load ptr, ptr %45, align 8
  call void @apply_tlist_labeling(ptr noundef %43, ptr noundef %46)
  %47 = load ptr, ptr %4, align 8
  ret ptr %47
}

; Function Attrs: nounwind uwtable
define internal ptr @set_subqueryscan_references(ptr noundef %0, ptr noundef %1, i32 noundef %2) #0 {
  %4 = alloca ptr, align 8
  %5 = alloca ptr, align 8
  %6 = alloca i32, align 4
  %7 = alloca ptr, align 8
  %8 = alloca ptr, align 8
  store ptr %0, ptr %4, align 8
  store ptr %1, ptr %5, align 8
  store i32 %2, ptr %6, align 4
  call void @llvm.lifetime.start.p0(i64 8, ptr %7) #8
  call void @llvm.lifetime.start.p0(i64 8, ptr %8) #8
  %9 = load ptr, ptr %4, align 8
  %10 = load ptr, ptr %5, align 8
  %11 = getelementptr inbounds nuw %struct.SubqueryScan, ptr %10, i32 0, i32 0
  %12 = getelementptr inbounds nuw %struct.Scan, ptr %11, i32 0, i32 1
  %13 = load i32, ptr %12, align 8
  %14 = call ptr @find_base_rel(ptr noundef %9, i32 noundef %13)
  store ptr %14, ptr %7, align 8
  %15 = load ptr, ptr %7, align 8
  %16 = getelementptr inbounds nuw %struct.RelOptInfo, ptr %15, i32 0, i32 34
  %17 = load ptr, ptr %16, align 8
  %18 = load ptr, ptr %5, align 8
  %19 = getelementptr inbounds nuw %struct.SubqueryScan, ptr %18, i32 0, i32 1
  %20 = load ptr, ptr %19, align 8
  %21 = call ptr @set_plan_references(ptr noundef %17, ptr noundef %20)
  %22 = load ptr, ptr %5, align 8
  %23 = getelementptr inbounds nuw %struct.SubqueryScan, ptr %22, i32 0, i32 1
  store ptr %21, ptr %23, align 8
  %24 = load ptr, ptr %5, align 8
  %25 = call zeroext i1 @trivial_subqueryscan(ptr noundef %24)
  br i1 %25, label %26, label %32

26:                                               ; preds = %3
  %27 = load ptr, ptr %5, align 8
  %28 = load ptr, ptr %5, align 8
  %29 = getelementptr inbounds nuw %struct.SubqueryScan, ptr %28, i32 0, i32 1
  %30 = load ptr, ptr %29, align 8
  %31 = call ptr @clean_up_removed_plan_level(ptr noundef %27, ptr noundef %30)
  store ptr %31, ptr %8, align 8
  br label %71

32:                                               ; preds = %3
  %33 = load i32, ptr %6, align 4
  %34 = load ptr, ptr %5, align 8
  %35 = getelementptr inbounds nuw %struct.SubqueryScan, ptr %34, i32 0, i32 0
  %36 = getelementptr inbounds nuw %struct.Scan, ptr %35, i32 0, i32 1
  %37 = load i32, ptr %36, align 8
  %38 = add i32 %37, %33
  store i32 %38, ptr %36, align 8
  %39 = load ptr, ptr %4, align 8
  %40 = load ptr, ptr %5, align 8
  %41 = getelementptr inbounds nuw %struct.SubqueryScan, ptr %40, i32 0, i32 0
  %42 = getelementptr inbounds nuw %struct.Scan, ptr %41, i32 0, i32 0
  %43 = getelementptr inbounds nuw %struct.Plan, ptr %42, i32 0, i32 10
  %44 = load ptr, ptr %43, align 8
  %45 = load i32, ptr %6, align 4
  %46 = load ptr, ptr %5, align 8
  %47 = getelementptr inbounds nuw %struct.Plan, ptr %46, i32 0, i32 4
  %48 = load double, ptr %47, align 8
  %49 = call ptr @fix_scan_expr(ptr noundef %39, ptr noundef %44, i32 noundef %45, double noundef %48)
  %50 = load ptr, ptr %5, align 8
  %51 = getelementptr inbounds nuw %struct.SubqueryScan, ptr %50, i32 0, i32 0
  %52 = getelementptr inbounds nuw %struct.Scan, ptr %51, i32 0, i32 0
  %53 = getelementptr inbounds nuw %struct.Plan, ptr %52, i32 0, i32 10
  store ptr %49, ptr %53, align 8
  %54 = load ptr, ptr %4, align 8
  %55 = load ptr, ptr %5, align 8
  %56 = getelementptr inbounds nuw %struct.SubqueryScan, ptr %55, i32 0, i32 0
  %57 = getelementptr inbounds nuw %struct.Scan, ptr %56, i32 0, i32 0
  %58 = getelementptr inbounds nuw %struct.Plan, ptr %57, i32 0, i32 11
  %59 = load ptr, ptr %58, align 8
  %60 = load i32, ptr %6, align 4
  %61 = load ptr, ptr %5, align 8
  %62 = getelementptr inbounds nuw %struct.Plan, ptr %61, i32 0, i32 4
  %63 = load double, ptr %62, align 8
  %64 = fmul double %63, 2.000000e+00
  %65 = call ptr @fix_scan_expr(ptr noundef %54, ptr noundef %59, i32 noundef %60, double noundef %64)
  %66 = load ptr, ptr %5, align 8
  %67 = getelementptr inbounds nuw %struct.SubqueryScan, ptr %66, i32 0, i32 0
  %68 = getelementptr inbounds nuw %struct.Scan, ptr %67, i32 0, i32 0
  %69 = getelementptr inbounds nuw %struct.Plan, ptr %68, i32 0, i32 11
  store ptr %65, ptr %69, align 8
  %70 = load ptr, ptr %5, align 8
  store ptr %70, ptr %8, align 8
  br label %71

71:                                               ; preds = %32, %26
  %72 = load ptr, ptr %8, align 8
  call void @llvm.lifetime.end.p0(i64 8, ptr %8) #8
  call void @llvm.lifetime.end.p0(i64 8, ptr %7) #8
  ret ptr %72
}