; Function Attrs: nounwind uwtable
define internal fastcc ptr @set_subqueryscan_references(ptr noundef %0, ptr noundef nonnull captures(ret: address, provenance) %1, i32 noundef %2) unnamed_addr #0 {
  %4 = alloca %struct.fix_scan_expr_context, align 8
  %5 = alloca %struct.fix_scan_expr_context, align 8
  %6 = alloca double, align 8
  %7 = alloca i8, align 1
  %8 = getelementptr inbounds nuw i8, ptr %1, i64 104
  %9 = load i32, ptr %8, align 8
  %10 = tail call ptr @find_base_rel(ptr noundef %0, i32 noundef %9) #8
  %11 = getelementptr inbounds nuw i8, ptr %10, i64 224
  %12 = load ptr, ptr %11, align 8
  %13 = getelementptr inbounds nuw i8, ptr %1, i64 112
  %14 = load ptr, ptr %13, align 8
  %15 = tail call ptr @set_plan_references(ptr noundef %12, ptr noundef %14)
  store ptr %15, ptr %13, align 8
  %16 = tail call zeroext i1 @trivial_subqueryscan(ptr noundef nonnull %1)
  br i1 %16, label %17, label %42

17:                                               ; preds = %3
  %18 = load ptr, ptr %13, align 8
  %19 = getelementptr inbounds nuw i8, ptr %1, i64 80
  %20 = load ptr, ptr %19, align 8
  %.not.i = icmp eq ptr %20, null
  br i1 %.not.i, label %clean_up_removed_plan_level.exit, label %21

21:                                               ; preds = %17
  call void @llvm.lifetime.start.p0(i64 8, ptr nonnull %6) #8
  call void @llvm.lifetime.start.p0(i64 1, ptr nonnull %7) #8
  call void @SS_compute_initplan_cost(ptr noundef nonnull %20, ptr noundef nonnull %6, ptr noundef nonnull %7) #8
  %22 = load double, ptr %6, align 8
  %23 = getelementptr inbounds nuw i8, ptr %18, i64 8
  %24 = load double, ptr %23, align 8
  %25 = fadd double %22, %24
  store double %25, ptr %23, align 8
  %26 = getelementptr inbounds nuw i8, ptr %18, i64 16
  %27 = load double, ptr %26, align 8
  %28 = fadd double %22, %27
  store double %28, ptr %26, align 8
  %29 = load i8, ptr %7, align 1, !range !4, !noundef !5
  %30 = trunc nuw i8 %29 to i1
  br i1 %30, label %31, label %33

31:                                               ; preds = %21
  %32 = getelementptr inbounds nuw i8, ptr %18, i64 37
  store i8 0, ptr %32, align 1
  br label %33

33:                                               ; preds = %31, %21
  %34 = load ptr, ptr %19, align 8
  %35 = getelementptr inbounds nuw i8, ptr %18, i64 80
  %36 = load ptr, ptr %35, align 8
  %37 = call ptr @list_concat(ptr noundef %34, ptr noundef %36) #8
  store ptr %37, ptr %35, align 8
  call void @llvm.lifetime.end.p0(i64 1, ptr nonnull %7) #8
  call void @llvm.lifetime.end.p0(i64 8, ptr nonnull %6) #8
  br label %clean_up_removed_plan_level.exit

clean_up_removed_plan_level.exit:                 ; preds = %17, %33
  %38 = getelementptr inbounds nuw i8, ptr %18, i64 48
  %39 = load ptr, ptr %38, align 8
  %40 = getelementptr inbounds nuw i8, ptr %1, i64 48
  %41 = load ptr, ptr %40, align 8
  call void @apply_tlist_labeling(ptr noundef %39, ptr noundef %41) #8
  br label %95

42:                                               ; preds = %3
  %43 = load i32, ptr %8, align 8
  %44 = add i32 %43, %2
  store i32 %44, ptr %8, align 8
  %45 = getelementptr inbounds nuw i8, ptr %1, i64 48
  %46 = load ptr, ptr %45, align 8
  %47 = getelementptr inbounds nuw i8, ptr %1, i64 24
  %48 = load double, ptr %47, align 8
  call void @llvm.lifetime.start.p0(i64 24, ptr nonnull %5) #8
  store ptr %0, ptr %5, align 8
  %49 = getelementptr inbounds nuw i8, ptr %5, i64 8
  store i32 %2, ptr %49, align 8
  %50 = getelementptr inbounds nuw i8, ptr %5, i64 16
  store double %48, ptr %50, align 8
  %.not.i21 = icmp eq i32 %2, 0
  br i1 %.not.i21, label %51, label %66

51:                                               ; preds = %42
  %52 = getelementptr inbounds nuw i8, ptr %0, i64 160
  %53 = load ptr, ptr %52, align 8
  %.not11.i = icmp eq ptr %53, null
  br i1 %.not11.i, label %54, label %66

54:                                               ; preds = %51
  %55 = getelementptr inbounds nuw i8, ptr %0, i64 16
  %56 = load ptr, ptr %55, align 8
  %57 = getelementptr inbounds nuw i8, ptr %56, i64 136
  %58 = load i32, ptr %57, align 8
  %.not12.i = icmp eq i32 %58, 0
  br i1 %.not12.i, label %59, label %66

59:                                               ; preds = %54
  %60 = getelementptr inbounds nuw i8, ptr %0, i64 552
  %61 = load ptr, ptr %60, align 8
  %.not13.i = icmp eq ptr %61, null
  br i1 %.not13.i, label %62, label %66

62:                                               ; preds = %59
  %63 = getelementptr inbounds nuw i8, ptr %0, i64 600
  %64 = load i8, ptr %63, align 8, !range !4, !noundef !5
  %65 = trunc nuw i8 %64 to i1
  br i1 %65, label %66, label %68

66:                                               ; preds = %62, %59, %54, %51, %42
  %67 = call ptr @fix_scan_expr_mutator(ptr noundef %46, ptr noundef nonnull %5)
  br label %fix_scan_expr.exit

68:                                               ; preds = %62
  %69 = call zeroext i1 @fix_scan_expr_walker(ptr noundef %46, ptr noundef nonnull %5)
  br label %fix_scan_expr.exit

fix_scan_expr.exit:                               ; preds = %66, %68
  %.0.i = phi ptr [ %67, %66 ], [ %46, %68 ]
  call void @llvm.lifetime.end.p0(i64 24, ptr nonnull %5) #8
  store ptr %.0.i, ptr %45, align 8
  %70 = getelementptr inbounds nuw i8, ptr %1, i64 56
  %71 = load ptr, ptr %70, align 8
  %72 = load double, ptr %47, align 8
  %73 = fmul double %72, 2.000000e+00
  call void @llvm.lifetime.start.p0(i64 24, ptr nonnull %4) #8
  store ptr %0, ptr %4, align 8
  %74 = getelementptr inbounds nuw i8, ptr %4, i64 8
  store i32 %2, ptr %74, align 8
  %75 = getelementptr inbounds nuw i8, ptr %4, i64 16
  store double %73, ptr %75, align 8
  br i1 %.not.i21, label %76, label %91

76:                                               ; preds = %fix_scan_expr.exit
  %77 = getelementptr inbounds nuw i8, ptr %0, i64 160
  %78 = load ptr, ptr %77, align 8
  %.not11.i24 = icmp eq ptr %78, null
  br i1 %.not11.i24, label %79, label %91

79:                                               ; preds = %76
  %80 = getelementptr inbounds nuw i8, ptr %0, i64 16
  %81 = load ptr, ptr %80, align 8
  %82 = getelementptr inbounds nuw i8, ptr %81, i64 136
  %83 = load i32, ptr %82, align 8
  %.not12.i25 = icmp eq i32 %83, 0
  br i1 %.not12.i25, label %84, label %91

84:                                               ; preds = %79
  %85 = getelementptr inbounds nuw i8, ptr %0, i64 552
  %86 = load ptr, ptr %85, align 8
  %.not13.i26 = icmp eq ptr %86, null
  br i1 %.not13.i26, label %87, label %91

87:                                               ; preds = %84
  %88 = getelementptr inbounds nuw i8, ptr %0, i64 600
  %89 = load i8, ptr %88, align 8, !range !4, !noundef !5
  %90 = trunc nuw i8 %89 to i1
  br i1 %90, label %91, label %93

91:                                               ; preds = %87, %84, %79, %76, %fix_scan_expr.exit
  %92 = call ptr @fix_scan_expr_mutator(ptr noundef %71, ptr noundef nonnull %4)
  br label %fix_scan_expr.exit27

93:                                               ; preds = %87
  %94 = call zeroext i1 @fix_scan_expr_walker(ptr noundef %71, ptr noundef nonnull %4)
  br label %fix_scan_expr.exit27

fix_scan_expr.exit27:                             ; preds = %91, %93
  %.0.i23 = phi ptr [ %92, %91 ], [ %71, %93 ]
  call void @llvm.lifetime.end.p0(i64 24, ptr nonnull %4) #8
  store ptr %.0.i23, ptr %70, align 8
  br label %95

95:                                               ; preds = %fix_scan_expr.exit27, %clean_up_removed_plan_level.exit
  %.0 = phi ptr [ %18, %clean_up_removed_plan_level.exit ], [ %1, %fix_scan_expr.exit27 ]
  ret ptr %.0
}